target datalayout = "e-m:e-p270:32:32-p271:32:32-p272:64:64-i64:64-i128:128-f80:128-n8:16:32:64-S128"
target triple = "x86_64-pc-linux-gnu"

%"class.cv::Vec.0" = type { %"class.cv::Matx.1" }
%"class.cv::Matx.1" = type { [2 x float] }

; Function Attrs: mustprogress nounwind uwtable
define linkonce_odr hidden noundef nonnull align 4 dereferenceable(4) ptr @_ZNK2cv3VecIfLi2EEixEi(ptr noundef nonnull align 4 dereferenceable(8) %0, i32 noundef %1) #4 comdat align 2 {
  %3 = alloca ptr, align 8
  %4 = alloca i32, align 4
  store ptr %0, ptr %3, align 8
  store i32 %1, ptr %4, align 4
  %5 = load ptr, ptr %3, align 8
  %6 = getelementptr inbounds %"class.cv::Matx.1", ptr %5, i32 0, i32 0
  %7 = load i32, ptr %4, align 4
  %8 = sext i32 %7 to i64
  %9 = getelementptr inbounds [2 x float], ptr %6, i64 0, i64 %8
  ret ptr %9
}

; Function Attrs: mustprogress uwtable
define internal void @_ZN2cvL9randf_32fEPfiPmPKNS_3VecIfLi2EEEPvb(ptr noundef %0, i32 noundef %1, ptr noundef %2, ptr noundef %3, ptr noundef %4, i1 noundef zeroext %5) #0 {
  %7 = alloca ptr, align 8
  %8 = alloca i32, align 4
  %9 = alloca ptr, align 8
  %10 = alloca ptr, align 8
  %11 = alloca ptr, align 8
  %12 = alloca i8, align 1
  %13 = alloca i64, align 8
  %14 = alloca i32, align 4
  %15 = alloca i32, align 4
  store ptr %0, ptr %7, align 8
  store i32 %1, ptr %8, align 4
  store ptr %2, ptr %9, align 8
  store ptr %3, ptr %10, align 8
  store ptr %4, ptr %11, align 8
  %16 = zext i1 %5 to i8
  store i8 %16, ptr %12, align 1
  %17 = load ptr, ptr %9, align 8
  %18 = load i64, ptr %17, align 8
  store i64 %18, ptr %13, align 8
  store i32 0, ptr %14, align 4
  br label %19

19:                                               ; preds = %45, %6
  %20 = load i32, ptr %14, align 4
  %21 = load i32, ptr %8, align 4
  %22 = icmp slt i32 %20, %21
  br i1 %22, label %23, label %48

23:                                               ; preds = %19
  %24 = load i64, ptr %13, align 8
  %25 = trunc i64 %24 to i32
  %26 = zext i32 %25 to i64
  %27 = mul i64 %26, 4164903690
  %28 = load i64, ptr %13, align 8
  %29 = lshr i64 %28, 32
  %30 = add i64 %27, %29
  store i64 %30, ptr %13, align 8
  %31 = trunc i64 %30 to i32
  store i32 %31, ptr %15, align 4
  %32 = load i32, ptr %15, align 4
  %33 = sitofp i32 %32 to float
  %34 = load ptr, ptr %10, align 8
  %35 = load i32, ptr %14, align 4
  %36 = sext i32 %35 to i64
  %37 = getelementptr inbounds %"class.cv::Vec.0", ptr %34, i64 %36
  %38 = call noundef nonnull align 4 dereferenceable(4) ptr @_ZNK2cv3VecIfLi2EEixEi(ptr noundef nonnull align 4 dereferenceable(8) %37, i32 noundef 0)
  %39 = load float, ptr %38, align 4
  %40 = fmul float %33, %39
  %41 = load ptr, ptr %7, align 8
  %42 = load i32, ptr %14, align 4
  %43 = sext i32 %42 to i64
  %44 = getelementptr inbounds float, ptr %41, i64 %43
  store float %40, ptr %44, align 4
  br label %45

45:                                               ; preds = %23
  %46 = load i32, ptr %14, align 4
  %47 = add nsw i32 %46, 1
  store i32 %47, ptr %14, align 4
  br label %19, !llvm.loop !61

48:                                               ; preds = %19
  %49 = load i64, ptr %13, align 8
  %50 = load ptr, ptr %9, align 8
  store i64 %49, ptr %50, align 8
  %51 = load ptr, ptr %7, align 8
  %52 = load ptr, ptr %10, align 8
  %53 = getelementptr inbounds %"class.cv::Vec.0", ptr %52, i64 0
  %54 = call noundef nonnull align 4 dereferenceable(4) ptr @_ZNK2cv3VecIfLi2EEixEi(ptr noundef nonnull align 4 dereferenceable(8) %53, i32 noundef 0)
  %55 = load i32, ptr %8, align 4
  call void @_ZN2cv3hal13addRNGBias32fEPfPKfi(ptr noundef %51, ptr noundef %54, i32 noundef %55)
  ret void
}